; ModuleID = '11/614.c'
source_filename = "11/614.c"
target datalayout = "e-m:e-p270:32:32-p271:32:32-p272:64:64-i64:64-f80:128-n8:16:32:64-S128"
target triple = "x86_64-pc-linux-gnu"

@.str = private unnamed_addr constant [9 x i8] c"%d %d %d\00", align 1
@.str.1 = private unnamed_addr constant [4 x i8] c"%d\0A\00", align 1

; Function Attrs: noinline nounwind uwtable
define dso_local i32 @main() #0 {
  %1 = alloca i32, align 4
  %2 = alloca i32, align 4
  %3 = alloca i32, align 4
  %4 = alloca i32, align 4
  %5 = alloca i32, align 4
  %6 = alloca i32, align 4
  %7 = alloca i32, align 4
  %8 = alloca [13 x i32], align 16
  store i32 0, i32* %1, align 4
  store i32 0, i32* %5, align 4
  store i32 1, i32* %6, align 4
  %9 = getelementptr inbounds [13 x i32], [13 x i32]* %8, i64 0, i64 12
  store i32 31, i32* %9, align 16
  %10 = getelementptr inbounds [13 x i32], [13 x i32]* %8, i64 0, i64 10
  store i32 31, i32* %10, align 8
  %11 = getelementptr inbounds [13 x i32], [13 x i32]* %8, i64 0, i64 8
  store i32 31, i32* %11, align 16
  %12 = getelementptr inbounds [13 x i32], [13 x i32]* %8, i64 0, i64 7
  store i32 31, i32* %12, align 4
  %13 = getelementptr inbounds [13 x i32], [13 x i32]* %8, i64 0, i64 5
  store i32 31, i32* %13, align 4
  %14 = getelementptr inbounds [13 x i32], [13 x i32]* %8, i64 0, i64 3
  store i32 31, i32* %14, align 4
  %15 = getelementptr inbounds [13 x i32], [13 x i32]* %8, i64 0, i64 1
  store i32 31, i32* %15, align 4
  %16 = getelementptr inbounds [13 x i32], [13 x i32]* %8, i64 0, i64 11
  store i32 30, i32* %16, align 4
  %17 = getelementptr inbounds [13 x i32], [13 x i32]* %8, i64 0, i64 9
  store i32 30, i32* %17, align 4
  %18 = getelementptr inbounds [13 x i32], [13 x i32]* %8, i64 0, i64 6
  store i32 30, i32* %18, align 8
  %19 = getelementptr inbounds [13 x i32], [13 x i32]* %8, i64 0, i64 4
  store i32 30, i32* %19, align 16
  %20 = getelementptr inbounds [13 x i32], [13 x i32]* %8, i64 0, i64 2
  store i32 29, i32* %20, align 8
  %21 = call i32 (i8*, ...) @__isoc99_scanf(i8* getelementptr inbounds ([9 x i8], [9 x i8]* @.str, i64 0, i64 0), i32* %2, i32* %3, i32* %4)
  %22 = load i32, i32* %3, align 4
  %23 = icmp eq i32 %22, 1
  br i1 %23, label %24, label %27

24:                                               ; preds = %0
  %25 = load i32, i32* %4, align 4
  store i32 %25, i32* %5, align 4
  %26 = load i32, i32* %5, align 4
  store i32 %26, i32* %7, align 4
  br label %79

27:                                               ; preds = %0
  %28 = load i32, i32* %2, align 4
  %29 = srem i32 %28, 400
  %30 = icmp eq i32 %29, 0
  br i1 %30, label %39, label %31

31:                                               ; preds = %27
  %32 = load i32, i32* %2, align 4
  %33 = srem i32 %32, 4
  %34 = icmp eq i32 %33, 0
  br i1 %34, label %35, label %58

35:                                               ; preds = %31
  %36 = load i32, i32* %2, align 4
  %37 = srem i32 %36, 100
  %38 = icmp ne i32 %37, 0
  br i1 %38, label %39, label %58

39:                                               ; preds = %35, %27
  store i32 1, i32* %6, align 4
  br label %40

40:                                               ; preds = %54, %39
  %41 = load i32, i32* %6, align 4
  %42 = load i32, i32* %3, align 4
  %43 = icmp slt i32 %41, %42
  br i1 %43, label %44, label %57

44:                                               ; preds = %40
  %45 = load i32, i32* %5, align 4
  %46 = load i32, i32* %6, align 4
  %47 = sext i32 %46 to i64
  %48 = getelementptr inbounds [13 x i32], [13 x i32]* %8, i64 0, i64 %47
  %49 = load i32, i32* %48, align 4
  %50 = add nsw i32 %45, %49
  store i32 %50, i32* %5, align 4
  %51 = load i32, i32* %5, align 4
  %52 = load i32, i32* %4, align 4
  %53 = add nsw i32 %51, %52
  store i32 %53, i32* %7, align 4
  br label %54

54:                                               ; preds = %44
  %55 = load i32, i32* %6, align 4
  %56 = add nsw i32 %55, 1
  store i32 %56, i32* %6, align 4
  br label %40

57:                                               ; preds = %40
  br label %78

58:                                               ; preds = %35, %31
  store i32 1, i32* %6, align 4
  br label %59

59:                                               ; preds = %70, %58
  %60 = load i32, i32* %6, align 4
  %61 = load i32, i32* %3, align 4
  %62 = icmp slt i32 %60, %61
  br i1 %62, label %63, label %73

63:                                               ; preds = %59
  %64 = load i32, i32* %5, align 4
  %65 = load i32, i32* %6, align 4
  %66 = sext i32 %65 to i64
  %67 = getelementptr inbounds [13 x i32], [13 x i32]* %8, i64 0, i64 %66
  %68 = load i32, i32* %67, align 4
  %69 = add nsw i32 %64, %68
  store i32 %69, i32* %5, align 4
  br label %70

70:                                               ; preds = %63
  %71 = load i32, i32* %6, align 4
  %72 = add nsw i32 %71, 1
  store i32 %72, i32* %6, align 4
  br label %59

73:                                               ; preds = %59
  %74 = load i32, i32* %5, align 4
  %75 = load i32, i32* %4, align 4
  %76 = add nsw i32 %74, %75
  %77 = sub nsw i32 %76, 1
  store i32 %77, i32* %7, align 4
  br label %78

78:                                               ; preds = %73, %57
  br label %79

79:                                               ; preds = %78, %24
  %80 = load i32, i32* %7, align 4
  %81 = call i32 (i8*, ...) @printf(i8* getelementptr inbounds ([4 x i8], [4 x i8]* @.str.1, i64 0, i64 0), i32 %80)
  ret i32 0
}

declare dso_local i32 @__isoc99_scanf(i8*, ...) #1

declare dso_local i32 @printf(i8*, ...) #1


!llvm.module.flags = !{!0}
!llvm.ident = !{!1}

!0 = !{i32 1, !"wchar_size", i32 4}
!1 = !{!"clang version 10.0.0-4ubuntu1 "}
